target datalayout = "e-m:e-p270:32:32-p271:32:32-p272:64:64-i64:64-i128:128-f80:128-n8:16:32:64-S128"
target triple = "x86_64-pc-linux-gnu"

; Function Attrs: nounwind uwtable
define i32 @Abs_GiaCheckTruth(ptr noundef %0, i32 noundef %1, i32 noundef %2) #0 {
  %4 = alloca i32, align 4
  %5 = alloca ptr, align 8
  %6 = alloca i32, align 4
  %7 = alloca i32, align 4
  %8 = alloca ptr, align 8
  %9 = alloca i32, align 4
  %10 = alloca i32, align 4
  %11 = alloca i32, align 4
  %12 = alloca i32, align 4
  %13 = alloca i32, align 4
  store ptr %0, ptr %5, align 8, !tbaa !76
  store i32 %1, ptr %6, align 4, !tbaa !10
  store i32 %2, ptr %7, align 4, !tbaa !10
  call void @llvm.lifetime.start.p0(i64 8, ptr %8) #13
  %14 = load ptr, ptr %5, align 8, !tbaa !76
  store ptr %14, ptr %8, align 8, !tbaa !49
  call void @llvm.lifetime.start.p0(i64 4, ptr %9) #13
  %15 = load i32, ptr %6, align 4, !tbaa !10
  %16 = icmp sge i32 %15, 3
  br i1 %16, label %17, label %21

17:                                               ; preds = %3
  %18 = load i32, ptr %6, align 4, !tbaa !10
  %19 = sub nsw i32 %18, 3
  %20 = shl i32 1, %19
  br label %22

21:                                               ; preds = %3
  br label %22

22:                                               ; preds = %21, %17
  %23 = phi i32 [ %20, %17 ], [ 1, %21 ]
  store i32 %23, ptr %9, align 4, !tbaa !10
  call void @llvm.lifetime.start.p0(i64 4, ptr %10) #13
  call void @llvm.lifetime.start.p0(i64 4, ptr %11) #13
  call void @llvm.lifetime.start.p0(i64 4, ptr %12) #13
  %24 = load i32, ptr %7, align 4, !tbaa !10
  %25 = icmp eq i32 %24, 1
  br i1 %25, label %26, label %54

26:                                               ; preds = %22
  store i32 0, ptr %10, align 4, !tbaa !10
  br label %27

27:                                               ; preds = %50, %26
  %28 = load i32, ptr %10, align 4, !tbaa !10
  %29 = load i32, ptr %9, align 4, !tbaa !10
  %30 = icmp slt i32 %28, %29
  br i1 %30, label %31, label %53

31:                                               ; preds = %27
  %32 = load ptr, ptr %8, align 8, !tbaa !49
  %33 = load i32, ptr %10, align 4, !tbaa !10
  %34 = sext i32 %33 to i64
  %35 = getelementptr inbounds i8, ptr %32, i64 %34
  %36 = load i8, ptr %35, align 1, !tbaa !80
  %37 = zext i8 %36 to i32
  %38 = load ptr, ptr %8, align 8, !tbaa !49
  %39 = load i32, ptr %10, align 4, !tbaa !10
  %40 = sext i32 %39 to i64
  %41 = getelementptr inbounds i8, ptr %38, i64 %40
  %42 = load i8, ptr %41, align 1, !tbaa !80
  %43 = zext i8 %42 to i32
  %44 = lshr i32 %43, 1
  %45 = xor i32 %37, %44
  %46 = and i32 %45, 85
  %47 = icmp ne i32 %46, 85
  br i1 %47, label %48, label %49

48:                                               ; preds = %31
  store i32 0, ptr %4, align 4
  store i32 1, ptr %13, align 4
  br label %176

49:                                               ; preds = %31
  br label %50

50:                                               ; preds = %49
  %51 = load i32, ptr %10, align 4, !tbaa !10
  %52 = add nsw i32 %51, 1
  store i32 %52, ptr %10, align 4, !tbaa !10
  br label %27, !llvm.loop !81

53:                                               ; preds = %27
  store i32 1, ptr %4, align 4
  store i32 1, ptr %13, align 4
  br label %176

54:                                               ; preds = %22
  %55 = load i32, ptr %7, align 4, !tbaa !10
  %56 = icmp eq i32 %55, 2
  br i1 %56, label %57, label %106

57:                                               ; preds = %54
  store i32 0, ptr %10, align 4, !tbaa !10
  br label %58

58:                                               ; preds = %102, %57
  %59 = load i32, ptr %10, align 4, !tbaa !10
  %60 = load i32, ptr %9, align 4, !tbaa !10
  %61 = icmp slt i32 %59, %60
  br i1 %61, label %62, label %105

62:                                               ; preds = %58
  %63 = load ptr, ptr %8, align 8, !tbaa !49
  %64 = load i32, ptr %10, align 4, !tbaa !10
  %65 = sext i32 %64 to i64
  %66 = getelementptr inbounds i8, ptr %63, i64 %65
  %67 = load i8, ptr %66, align 1, !tbaa !80
  %68 = zext i8 %67 to i32
  %69 = and i32 %68, 15
  %70 = icmp eq i32 %69, 0
  br i1 %70, label %100, label %71

71:                                               ; preds = %62
  %72 = load ptr, ptr %8, align 8, !tbaa !49
  %73 = load i32, ptr %10, align 4, !tbaa !10
  %74 = sext i32 %73 to i64
  %75 = getelementptr inbounds i8, ptr %72, i64 %74
  %76 = load i8, ptr %75, align 1, !tbaa !80
  %77 = zext i8 %76 to i32
  %78 = lshr i32 %77, 4
  %79 = and i32 %78, 15
  %80 = icmp eq i32 %79, 0
  br i1 %80, label %100, label %81

81:                                               ; preds = %71
  %82 = load ptr, ptr %8, align 8, !tbaa !49
  %83 = load i32, ptr %10, align 4, !tbaa !10
  %84 = sext i32 %83 to i64
  %85 = getelementptr inbounds i8, ptr %82, i64 %84
  %86 = load i8, ptr %85, align 1, !tbaa !80
  %87 = zext i8 %86 to i32
  %88 = and i32 %87, 15
  %89 = icmp eq i32 %88, 15
  br i1 %89, label %100, label %90

90:                                               ; preds = %81
  %91 = load ptr, ptr %8, align 8, !tbaa !49
  %92 = load i32, ptr %10, align 4, !tbaa !10
  %93 = sext i32 %92 to i64
  %94 = getelementptr inbounds i8, ptr %91, i64 %93
  %95 = load i8, ptr %94, align 1, !tbaa !80
  %96 = zext i8 %95 to i32
  %97 = lshr i32 %96, 4
  %98 = and i32 %97, 15
  %99 = icmp eq i32 %98, 15
  br i1 %99, label %100, label %101

100:                                              ; preds = %90, %81, %71, %62
  store i32 0, ptr %4, align 4
  store i32 1, ptr %13, align 4
  br label %176

101:                                              ; preds = %90
  br label %102

102:                                              ; preds = %101
  %103 = load i32, ptr %10, align 4, !tbaa !10
  %104 = add nsw i32 %103, 1
  store i32 %104, ptr %10, align 4, !tbaa !10
  br label %58, !llvm.loop !82

105:                                              ; preds = %58
  store i32 1, ptr %4, align 4
  store i32 1, ptr %13, align 4
  br label %176

106:                                              ; preds = %54
  %107 = load i32, ptr %7, align 4, !tbaa !10
  %108 = sub nsw i32 %107, 3
  %109 = shl i32 1, %108
  store i32 %109, ptr %12, align 4, !tbaa !10
  store i32 0, ptr %10, align 4, !tbaa !10
  br label %110

110:                                              ; preds = %167, %106
  %111 = load i32, ptr %10, align 4, !tbaa !10
  %112 = load i32, ptr %9, align 4, !tbaa !10
  %113 = icmp slt i32 %111, %112
  br i1 %113, label %114, label %171

114:                                              ; preds = %110
  store i32 0, ptr %11, align 4, !tbaa !10
  br label %115

115:                                              ; preds = %132, %114
  %116 = load i32, ptr %11, align 4, !tbaa !10
  %117 = load i32, ptr %12, align 4, !tbaa !10
  %118 = icmp slt i32 %116, %117
  br i1 %118, label %119, label %135

119:                                              ; preds = %115
  %120 = load ptr, ptr %8, align 8, !tbaa !49
  %121 = load i32, ptr %10, align 4, !tbaa !10
  %122 = load i32, ptr %11, align 4, !tbaa !10
  %123 = add nsw i32 %121, %122
  %124 = sext i32 %123 to i64
  %125 = getelementptr inbounds i8, ptr %120, i64 %124
  %126 = load i8, ptr %125, align 1, !tbaa !80
  %127 = zext i8 %126 to i32
  %128 = and i32 %127, 255
  %129 = icmp ne i32 %128, 0
  br i1 %129, label %130, label %131

130:                                              ; preds = %119
  br label %135

131:                                              ; preds = %119
  br label %132

132:                                              ; preds = %131
  %133 = load i32, ptr %11, align 4, !tbaa !10
  %134 = add nsw i32 %133, 1
  store i32 %134, ptr %11, align 4, !tbaa !10
  br label %115, !llvm.loop !83

135:                                              ; preds = %130, %115
  %136 = load i32, ptr %11, align 4, !tbaa !10
  %137 = load i32, ptr %12, align 4, !tbaa !10
  %138 = icmp eq i32 %136, %137
  br i1 %138, label %139, label %140

139:                                              ; preds = %135
  br label %171

140:                                              ; preds = %135
  store i32 0, ptr %11, align 4, !tbaa !10
  br label %141

141:                                              ; preds = %158, %140
  %142 = load i32, ptr %11, align 4, !tbaa !10
  %143 = load i32, ptr %12, align 4, !tbaa !10
  %144 = icmp slt i32 %142, %143
  br i1 %144, label %145, label %161

145:                                              ; preds = %141
  %146 = load ptr, ptr %8, align 8, !tbaa !49
  %147 = load i32, ptr %10, align 4, !tbaa !10
  %148 = load i32, ptr %11, align 4, !tbaa !10
  %149 = add nsw i32 %147, %148
  %150 = sext i32 %149 to i64
  %151 = getelementptr inbounds i8, ptr %146, i64 %150
  %152 = load i8, ptr %151, align 1, !tbaa !80
  %153 = zext i8 %152 to i32
  %154 = and i32 %153, 255
  %155 = icmp ne i32 %154, 255
  br i1 %155, label %156, label %157

156:                                              ; preds = %145
  br label %161

157:                                              ; preds = %145
  br label %158

158:                                              ; preds = %157
  %159 = load i32, ptr %11, align 4, !tbaa !10
  %160 = add nsw i32 %159, 1
  store i32 %160, ptr %11, align 4, !tbaa !10
  br label %141, !llvm.loop !84

161:                                              ; preds = %156, %141
  %162 = load i32, ptr %11, align 4, !tbaa !10
  %163 = load i32, ptr %12, align 4, !tbaa !10
  %164 = icmp eq i32 %162, %163
  br i1 %164, label %165, label %166

165:                                              ; preds = %161
  br label %171

166:                                              ; preds = %161
  br label %167

167:                                              ; preds = %166
  %168 = load i32, ptr %12, align 4, !tbaa !10
  %169 = load i32, ptr %10, align 4, !tbaa !10
  %170 = add nsw i32 %169, %168
  store i32 %170, ptr %10, align 4, !tbaa !10
  br label %110, !llvm.loop !85

171:                                              ; preds = %165, %139, %110
  %172 = load i32, ptr %10, align 4, !tbaa !10
  %173 = load i32, ptr %9, align 4, !tbaa !10
  %174 = icmp eq i32 %172, %173
  %175 = zext i1 %174 to i32
  store i32 %175, ptr %4, align 4
  store i32 1, ptr %13, align 4
  br label %176

176:                                              ; preds = %171, %105, %100, %53, %48
  call void @llvm.lifetime.end.p0(i64 4, ptr %12) #13
  call void @llvm.lifetime.end.p0(i64 4, ptr %11) #13
  call void @llvm.lifetime.end.p0(i64 4, ptr %10) #13
  call void @llvm.lifetime.end.p0(i64 4, ptr %9) #13
  call void @llvm.lifetime.end.p0(i64 8, ptr %8) #13
  %177 = load i32, ptr %4, align 4
  ret i32 %177
}