; Function Attrs: nofree norecurse nosync nounwind memory(argmem: read) uwtable
define range(i32 0, 2) i32 @Abs_GiaCheckTruth(ptr noundef readonly captures(none) %0, i32 noundef %1, i32 noundef %2) local_unnamed_addr #9 {
  %4 = icmp sgt i32 %1, 2
  %5 = add nsw i32 %1, -3
  %6 = shl nuw i32 1, %5
  %7 = select i1 %4, i32 %6, i32 1
  switch i32 %2, label %26 [
    i32 1, label %.preheader58
    i32 2, label %.preheader59
  ]

.preheader59:                                     ; preds = %3
  %8 = icmp sgt i32 %7, 0
  br i1 %8, label %.lr.ph.preheader, label %.loopexit

.lr.ph.preheader:                                 ; preds = %.preheader59
  %wide.trip.count = zext nneg i32 %7 to i64
  br label %.lr.ph

.preheader58:                                     ; preds = %3
  %9 = icmp sgt i32 %7, 0
  br i1 %9, label %.lr.ph66.preheader, label %.loopexit

.lr.ph66.preheader:                               ; preds = %.preheader58
  %wide.trip.count115 = zext nneg i32 %7 to i64
  br label %.lr.ph66

10:                                               ; preds = %.lr.ph66
  %indvars.iv.next113 = add nuw nsw i64 %indvars.iv112, 1
  %exitcond116.not = icmp eq i64 %indvars.iv.next113, %wide.trip.count115
  br i1 %exitcond116.not, label %.loopexit, label %.lr.ph66, !llvm.loop !78

.lr.ph66:                                         ; preds = %.lr.ph66.preheader, %10
  %indvars.iv112 = phi i64 [ 0, %.lr.ph66.preheader ], [ %indvars.iv.next113, %10 ]
  %11 = getelementptr inbounds nuw i8, ptr %0, i64 %indvars.iv112
  %12 = load i8, ptr %11, align 1, !tbaa !79
  %13 = zext i8 %12 to i32
  %14 = lshr i32 %13, 1
  %15 = xor i32 %14, %13
  %16 = and i32 %15, 85
  %.not54 = icmp eq i32 %16, 85
  br i1 %.not54, label %10, label %.loopexit

17:                                               ; preds = %.lr.ph
  %indvars.iv.next = add nuw nsw i64 %indvars.iv, 1
  %exitcond.not = icmp eq i64 %indvars.iv.next, %wide.trip.count
  br i1 %exitcond.not, label %.loopexit, label %.lr.ph, !llvm.loop !80

.lr.ph:                                           ; preds = %.lr.ph.preheader, %17
  %indvars.iv = phi i64 [ 0, %.lr.ph.preheader ], [ %indvars.iv.next, %17 ]
  %18 = getelementptr inbounds nuw i8, ptr %0, i64 %indvars.iv
  %19 = load i8, ptr %18, align 1, !tbaa !79
  %20 = zext i8 %19 to i32
  %21 = and i32 %20, 15
  %22 = icmp eq i32 %21, 0
  %23 = icmp ult i8 %19, 16
  %or.cond = or i1 %23, %22
  %24 = icmp eq i32 %21, 15
  %or.cond55 = or i1 %24, %or.cond
  %.mask = and i32 %20, 240
  %25 = icmp eq i32 %.mask, 240
  %or.cond56 = or i1 %25, %or.cond55
  br i1 %or.cond56, label %.loopexit, label %17

26:                                               ; preds = %3
  %27 = add nsw i32 %2, -3
  %28 = shl nuw i32 1, %27
  %29 = icmp sgt i32 %7, 0
  br i1 %29, label %.preheader57.lr.ph, label %._crit_edge82

.preheader57.lr.ph:                               ; preds = %26
  %.not = icmp eq i32 %27, 31
  br i1 %.not, label %.preheader57, label %.preheader57.us.us.preheader

.preheader57.us.us.preheader:                     ; preds = %.preheader57.lr.ph
  %smax = tail call i32 @llvm.smax.i32(i32 %28, i32 1)
  %30 = sext i32 %28 to i64
  %31 = zext nneg i32 %7 to i64
  %wide.trip.count120 = zext nneg i32 %smax to i64
  br label %.preheader57.us.us

.preheader57.us.us:                               ; preds = %.preheader57.us.us.preheader, %39
  %indvars.iv127 = phi i64 [ 0, %.preheader57.us.us.preheader ], [ %indvars.iv.next128, %39 ]
  %invariant.gep = getelementptr i8, ptr %0, i64 %indvars.iv127
  br label %32

32:                                               ; preds = %42, %.preheader57.us.us
  %indvars.iv117 = phi i64 [ %indvars.iv.next118, %42 ], [ 0, %.preheader57.us.us ]
  %gep = getelementptr i8, ptr %invariant.gep, i64 %indvars.iv117
  %33 = load i8, ptr %gep, align 1, !tbaa !79
  %.not.us.us = icmp eq i8 %33, 0
  br i1 %.not.us.us, label %42, label %._crit_edge.us.us.split.loop.exit132

._crit_edge.us.us.split.loop.exit132:             ; preds = %32
  %34 = trunc nuw nsw i64 %indvars.iv117 to i32
  br label %._crit_edge.us.us

._crit_edge.us.us:                                ; preds = %42, %._crit_edge.us.us.split.loop.exit132
  %.046.lcssa.us.us = phi i32 [ %34, %._crit_edge.us.us.split.loop.exit132 ], [ %smax, %42 ]
  %35 = icmp eq i32 %.046.lcssa.us.us, %28
  br i1 %35, label %._crit_edge82.loopexit107, label %.preheader.us.us.preheader

.preheader.us.us.preheader:                       ; preds = %._crit_edge.us.us
  %invariant.gep136 = getelementptr i8, ptr %0, i64 %indvars.iv127
  br label %.preheader.us.us

.preheader.us.us:                                 ; preds = %.preheader.us.us.preheader, %41
  %indvars.iv122 = phi i64 [ 0, %.preheader.us.us.preheader ], [ %indvars.iv.next123, %41 ]
  %gep137 = getelementptr i8, ptr %invariant.gep136, i64 %indvars.iv122
  %36 = load i8, ptr %gep137, align 1, !tbaa !79
  %.not53.us.us = icmp eq i8 %36, -1
  br i1 %.not53.us.us, label %41, label %._crit_edge77.us.us.split.loop.exit134

._crit_edge77.us.us.split.loop.exit134:           ; preds = %.preheader.us.us
  %37 = trunc nuw nsw i64 %indvars.iv122 to i32
  br label %._crit_edge77.us.us

._crit_edge77.us.us:                              ; preds = %41, %._crit_edge77.us.us.split.loop.exit134
  %.1.lcssa.us.us = phi i32 [ %37, %._crit_edge77.us.us.split.loop.exit134 ], [ %smax, %41 ]
  %38 = icmp eq i32 %.1.lcssa.us.us, %28
  br i1 %38, label %._crit_edge82.loopexit107, label %39

39:                                               ; preds = %._crit_edge77.us.us
  %indvars.iv.next128 = add nsw i64 %indvars.iv127, %30
  %40 = icmp slt i64 %indvars.iv.next128, %31
  br i1 %40, label %.preheader57.us.us, label %._crit_edge82.loopexit107, !llvm.loop !81

41:                                               ; preds = %.preheader.us.us
  %indvars.iv.next123 = add nuw nsw i64 %indvars.iv122, 1
  %exitcond126.not = icmp eq i64 %indvars.iv.next123, %wide.trip.count120
  br i1 %exitcond126.not, label %._crit_edge77.us.us, label %.preheader.us.us, !llvm.loop !82

42:                                               ; preds = %32
  %indvars.iv.next118 = add nuw nsw i64 %indvars.iv117, 1
  %exitcond121.not = icmp eq i64 %indvars.iv.next118, %wide.trip.count120
  br i1 %exitcond121.not, label %._crit_edge.us.us, label %32, !llvm.loop !83

.preheader57:                                     ; preds = %.preheader57.lr.ph, %.preheader57
  %.281 = phi i32 [ %43, %.preheader57 ], [ 0, %.preheader57.lr.ph ]
  %43 = add nsw i32 %.281, %28
  %44 = icmp slt i32 %43, %7
  br i1 %44, label %.preheader57, label %._crit_edge82, !llvm.loop !81

._crit_edge82.loopexit107:                        ; preds = %._crit_edge77.us.us, %._crit_edge.us.us, %39
  %.2.lcssa.ph.in = phi i64 [ %indvars.iv.next128, %39 ], [ %indvars.iv127, %._crit_edge.us.us ], [ %indvars.iv127, %._crit_edge77.us.us ]
  %.2.lcssa.ph = trunc i64 %.2.lcssa.ph.in to i32
  br label %._crit_edge82

._crit_edge82:                                    ; preds = %.preheader57, %._crit_edge82.loopexit107, %26
  %.2.lcssa = phi i32 [ 0, %26 ], [ %.2.lcssa.ph, %._crit_edge82.loopexit107 ], [ %43, %.preheader57 ]
  %45 = icmp eq i32 %.2.lcssa, %7
  %46 = zext i1 %45 to i32
  br label %.loopexit

.loopexit:                                        ; preds = %.lr.ph, %17, %.lr.ph66, %10, %.preheader59, %.preheader58, %._crit_edge82
  %.0 = phi i32 [ %46, %._crit_edge82 ], [ 1, %.preheader58 ], [ 1, %.preheader59 ], [ 0, %.lr.ph66 ], [ 1, %10 ], [ 0, %.lr.ph ], [ 1, %17 ]
  ret i32 %.0
}